target datalayout = "e-m:e-p270:32:32-p271:32:32-p272:64:64-i64:64-i128:128-f80:128-n8:16:32:64-S128"
target triple = "x86_64-pc-linux-gnu"

%"class.cv::KAZEFeatures" = type { %"struct.cv::KAZEOptions", %"class.std::vector", %"class.std::vector.0", i32, i8, %"class.std::vector.5", %"class.std::vector.10" }
%"struct.cv::KAZEOptions" = type <{ i32, float, i32, i32, i32, i32, float, float, float, float, i32, i8, i8, [2 x i8] }>
%"class.std::vector" = type { %"struct.std::_Vector_base" }
%"struct.std::_Vector_base" = type { %"struct.std::_Vector_base<cv::TEvolution, std::allocator<cv::TEvolution>>::_Vector_impl" }
%"struct.std::_Vector_base<cv::TEvolution, std::allocator<cv::TEvolution>>::_Vector_impl" = type { %"struct.std::_Vector_base<cv::TEvolution, std::allocator<cv::TEvolution>>::_Vector_impl_data" }
%"struct.std::_Vector_base<cv::TEvolution, std::allocator<cv::TEvolution>>::_Vector_impl_data" = type { ptr, ptr, ptr }
%"class.std::vector.0" = type { %"struct.std::_Vector_base.1" }
%"struct.std::_Vector_base.1" = type { %"struct.std::_Vector_base<std::vector<cv::KeyPoint>, std::allocator<std::vector<cv::KeyPoint>>>::_Vector_impl" }
%"struct.std::_Vector_base<std::vector<cv::KeyPoint>, std::allocator<std::vector<cv::KeyPoint>>>::_Vector_impl" = type { %"struct.std::_Vector_base<std::vector<cv::KeyPoint>, std::allocator<std::vector<cv::KeyPoint>>>::_Vector_impl_data" }
%"struct.std::_Vector_base<std::vector<cv::KeyPoint>, std::allocator<std::vector<cv::KeyPoint>>>::_Vector_impl_data" = type { ptr, ptr, ptr }
%"class.std::vector.5" = type { %"struct.std::_Vector_base.6" }
%"struct.std::_Vector_base.6" = type { %"struct.std::_Vector_base<std::vector<float>, std::allocator<std::vector<float>>>::_Vector_impl" }
%"struct.std::_Vector_base<std::vector<float>, std::allocator<std::vector<float>>>::_Vector_impl" = type { %"struct.std::_Vector_base<std::vector<float>, std::allocator<std::vector<float>>>::_Vector_impl_data" }
%"struct.std::_Vector_base<std::vector<float>, std::allocator<std::vector<float>>>::_Vector_impl_data" = type { ptr, ptr, ptr }
%"class.std::vector.10" = type { %"struct.std::_Vector_base.11" }
%"struct.std::_Vector_base.11" = type { %"struct.std::_Vector_base<int, std::allocator<int>>::_Vector_impl" }
%"struct.std::_Vector_base<int, std::allocator<int>>::_Vector_impl" = type { %"struct.std::_Vector_base<int, std::allocator<int>>::_Vector_impl_data" }
%"struct.std::_Vector_base<int, std::allocator<int>>::_Vector_impl_data" = type { ptr, ptr, ptr }
%"struct.cv::TEvolution" = type <{ %"class.cv::Mat", %"class.cv::Mat", %"class.cv::Mat", %"class.cv::Mat", %"class.cv::Mat", %"class.cv::Mat", %"class.cv::Mat", %"class.cv::Mat", float, float, i32, i32, i32, [4 x i8] }>
%"class.cv::Mat" = type { i32, i32, i32, i32, ptr, ptr, ptr, ptr, ptr, ptr, %"struct.cv::MatSize", %"struct.cv::MatStep" }
%"struct.cv::MatSize" = type { ptr }
%"struct.cv::MatStep" = type { ptr, [2 x i64] }
%"class.cv::Range" = type { i32, i32 }
%"class.cv::MultiscaleDerivativesKAZEInvoker" = type { %"class.cv::ParallelLoopBody", ptr }
%"class.cv::ParallelLoopBody" = type { ptr }

@_ZTVN2cv16ParallelLoopBodyE = available_externally unnamed_addr constant { [5 x ptr] } { [5 x ptr] [ptr null, ptr @_ZTIN2cv16ParallelLoopBodyE, ptr @_ZN2cv16ParallelLoopBodyD1Ev, ptr @_ZN2cv16ParallelLoopBodyD0Ev, ptr @__cxa_pure_virtual] }, align 8

; Function Attrs: inlinehint mustprogress nounwind uwtable
define linkonce_odr hidden void @_ZN2cv16ParallelLoopBodyC2Ev(ptr noundef nonnull align 8 dereferenceable(8) %0) unnamed_addr #6 comdat align 2 {
  %2 = alloca ptr, align 8
  store ptr %0, ptr %2, align 8, !tbaa !274
  %3 = load ptr, ptr %2, align 8
  store ptr getelementptr inbounds inrange(-16, 24) ({ [5 x ptr] }, ptr @_ZTVN2cv16ParallelLoopBodyE, i32 0, i32 0, i32 2), ptr %3, align 8, !tbaa !95
  ret void
}

; Function Attrs: mustprogress nounwind uwtable
define linkonce_odr hidden void @_ZN2cv32MultiscaleDerivativesKAZEInvokerC2ERSt6vectorINS_10TEvolutionESaIS2_EE(ptr noundef nonnull align 8 dereferenceable(16) %0, ptr noundef nonnull align 8 dereferenceable(24) %1) unnamed_addr #2 comdat align 2 {
  %3 = alloca ptr, align 8
  %4 = alloca ptr, align 8
  store ptr %0, ptr %3, align 8, !tbaa !161
  store ptr %1, ptr %4, align 8, !tbaa !43
  %5 = load ptr, ptr %3, align 8
  call void @_ZN2cv16ParallelLoopBodyC2Ev(ptr noundef nonnull align 8 dereferenceable(8) %5) #20
  store ptr getelementptr inbounds inrange(-16, 24) ({ [5 x ptr] }, ptr @_ZTVN2cv32MultiscaleDerivativesKAZEInvokerE, i32 0, i32 0, i32 2), ptr %5, align 8, !tbaa !95
  %6 = getelementptr inbounds nuw %"class.cv::MultiscaleDerivativesKAZEInvoker", ptr %5, i32 0, i32 1
  %7 = load ptr, ptr %4, align 8, !tbaa !43
  store ptr %7, ptr %6, align 8, !tbaa !163
  ret void
}

; Function Attrs: inlinehint mustprogress nounwind uwtable
define linkonce_odr hidden void @_ZN2cv5RangeC2Eii(ptr noundef nonnull align 4 dereferenceable(8) %0, i32 noundef %1, i32 noundef %2) unnamed_addr #6 comdat align 2 {
  %4 = alloca ptr, align 8
  %5 = alloca i32, align 4
  %6 = alloca i32, align 4
  store ptr %0, ptr %4, align 8, !tbaa !156
  store i32 %1, ptr %5, align 4, !tbaa !15
  store i32 %2, ptr %6, align 4, !tbaa !15
  %7 = load ptr, ptr %4, align 8
  %8 = getelementptr inbounds nuw %"class.cv::Range", ptr %7, i32 0, i32 0
  %9 = load i32, ptr %5, align 4, !tbaa !15
  store i32 %9, ptr %8, align 4, !tbaa !158
  %10 = getelementptr inbounds nuw %"class.cv::Range", ptr %7, i32 0, i32 1
  %11 = load i32, ptr %6, align 4, !tbaa !15
  store i32 %11, ptr %10, align 4, !tbaa !160
  ret void
}

; Function Attrs: inlinehint mustprogress nounwind uwtable
define linkonce_odr hidden noundef ptr @_ZN2cv3Mat3ptrIfEEPT_i(ptr noundef nonnull align 8 dereferenceable(96) %0, i32 noundef %1) #6 comdat align 2 {
  %3 = alloca ptr, align 8
  %4 = alloca i32, align 4
  store ptr %0, ptr %3, align 8, !tbaa !84
  store i32 %1, ptr %4, align 4, !tbaa !15
  %5 = load ptr, ptr %3, align 8
  %6 = getelementptr inbounds nuw %"class.cv::Mat", ptr %5, i32 0, i32 4
  %7 = load ptr, ptr %6, align 8, !tbaa !128
  %8 = getelementptr inbounds nuw %"class.cv::Mat", ptr %5, i32 0, i32 11
  %9 = getelementptr inbounds nuw %"struct.cv::MatStep", ptr %8, i32 0, i32 0
  %10 = load ptr, ptr %9, align 8, !tbaa !129
  %11 = getelementptr inbounds i64, ptr %10, i64 0
  %12 = load i64, ptr %11, align 8, !tbaa !72
  %13 = load i32, ptr %4, align 4, !tbaa !15
  %14 = sext i32 %13 to i64
  %15 = mul i64 %12, %14
  %16 = getelementptr inbounds nuw i8, ptr %7, i64 %15
  ret ptr %16
}

; Function Attrs: mustprogress nounwind uwtable
define linkonce_odr hidden noundef nonnull align 8 dereferenceable(788) ptr @_ZNSt6vectorIN2cv10TEvolutionESaIS1_EEixEm(ptr noundef nonnull align 8 dereferenceable(24) %0, i64 noundef %1) #2 comdat align 2 {
  %3 = alloca ptr, align 8
  %4 = alloca i64, align 8
  store ptr %0, ptr %3, align 8, !tbaa !43
  store i64 %1, ptr %4, align 8, !tbaa !72
  %5 = load ptr, ptr %3, align 8
  %6 = getelementptr inbounds nuw %"struct.std::_Vector_base", ptr %5, i32 0, i32 0
  %7 = getelementptr inbounds nuw %"struct.std::_Vector_base<cv::TEvolution, std::allocator<cv::TEvolution>>::_Vector_impl_data", ptr %6, i32 0, i32 0
  %8 = load ptr, ptr %7, align 8, !tbaa !81
  %9 = load i64, ptr %4, align 8, !tbaa !72
  %10 = getelementptr inbounds nuw %"struct.cv::TEvolution", ptr %8, i64 %9
  ret ptr %10
}

; Function Attrs: mustprogress nounwind uwtable
define linkonce_odr hidden noundef i64 @_ZNKSt6vectorIN2cv10TEvolutionESaIS1_EE4sizeEv(ptr noundef nonnull align 8 dereferenceable(24) %0) #2 comdat align 2 {
  %2 = alloca ptr, align 8
  store ptr %0, ptr %2, align 8, !tbaa !43
  %3 = load ptr, ptr %2, align 8
  %4 = getelementptr inbounds nuw %"struct.std::_Vector_base", ptr %3, i32 0, i32 0
  %5 = getelementptr inbounds nuw %"struct.std::_Vector_base<cv::TEvolution, std::allocator<cv::TEvolution>>::_Vector_impl_data", ptr %4, i32 0, i32 1
  %6 = load ptr, ptr %5, align 8, !tbaa !82
  %7 = getelementptr inbounds nuw %"struct.std::_Vector_base", ptr %3, i32 0, i32 0
  %8 = getelementptr inbounds nuw %"struct.std::_Vector_base<cv::TEvolution, std::allocator<cv::TEvolution>>::_Vector_impl_data", ptr %7, i32 0, i32 0
  %9 = load ptr, ptr %8, align 8, !tbaa !81
  %10 = ptrtoint ptr %6 to i64
  %11 = ptrtoint ptr %9 to i64
  %12 = sub i64 %10, %11
  %13 = sdiv exact i64 %12, 792
  ret i64 %13
}

; Function Attrs: mustprogress uwtable
define hidden void @_ZN2cv12KAZEFeatures30Compute_Multiscale_DerivativesEv(ptr noundef nonnull align 8 dereferenceable(152) %0) #0 align 2 personality ptr @__gxx_personality_v0 {
  %2 = alloca ptr, align 8
  %3 = alloca %"class.cv::Range", align 4
  %4 = alloca %"class.cv::MultiscaleDerivativesKAZEInvoker", align 8
  %5 = alloca ptr, align 8
  %6 = alloca i32, align 4
  store ptr %0, ptr %2, align 8, !tbaa !3
  %7 = load ptr, ptr %2, align 8
  call void @llvm.lifetime.start.p0(i64 8, ptr %3) #20
  %8 = getelementptr inbounds nuw %"class.cv::KAZEFeatures", ptr %7, i32 0, i32 1
  %9 = call noundef i64 @_ZNKSt6vectorIN2cv10TEvolutionESaIS1_EE4sizeEv(ptr noundef nonnull align 8 dereferenceable(24) %8) #20
  %10 = trunc i64 %9 to i32
  call void @_ZN2cv5RangeC2Eii(ptr noundef nonnull align 4 dereferenceable(8) %3, i32 noundef 0, i32 noundef %10)
  call void @llvm.lifetime.start.p0(i64 16, ptr %4) #20
  %11 = getelementptr inbounds nuw %"class.cv::KAZEFeatures", ptr %7, i32 0, i32 1
  call void @_ZN2cv32MultiscaleDerivativesKAZEInvokerC2ERSt6vectorINS_10TEvolutionESaIS2_EE(ptr noundef nonnull align 8 dereferenceable(16) %4, ptr noundef nonnull align 8 dereferenceable(24) %11)
  invoke void @_ZN2cv13parallel_for_ERKNS_5RangeERKNS_16ParallelLoopBodyEd(ptr noundef nonnull align 4 dereferenceable(8) %3, ptr noundef nonnull align 8 dereferenceable(8) %4, double noundef -1.000000e+00)
          to label %12 unwind label %13

12:                                               ; preds = %1
  call void @_ZN2cv16ParallelLoopBodyD2Ev(ptr noundef nonnull align 8 dereferenceable(16) %4) #20
  call void @llvm.lifetime.end.p0(i64 16, ptr %4) #20
  call void @llvm.lifetime.end.p0(i64 8, ptr %3) #20
  ret void

13:                                               ; preds = %1
  %14 = landingpad { ptr, i32 }
          cleanup
  %15 = extractvalue { ptr, i32 } %14, 0
  store ptr %15, ptr %5, align 8
  %16 = extractvalue { ptr, i32 } %14, 1
  store i32 %16, ptr %6, align 4
  call void @_ZN2cv16ParallelLoopBodyD2Ev(ptr noundef nonnull align 8 dereferenceable(16) %4) #20
  call void @llvm.lifetime.end.p0(i64 16, ptr %4) #20
  call void @llvm.lifetime.end.p0(i64 8, ptr %3) #20
  br label %17

17:                                               ; preds = %13
  %18 = load ptr, ptr %5, align 8
  %19 = load i32, ptr %6, align 4
  %20 = insertvalue { ptr, i32 } poison, ptr %18, 0
  %21 = insertvalue { ptr, i32 } %20, i32 %19, 1
  resume { ptr, i32 } %21
}

; Function Attrs: mustprogress uwtable
define hidden void @_ZN2cv12KAZEFeatures25Compute_Detector_ResponseEv(ptr noundef nonnull align 8 dereferenceable(152) %0) #0 align 2 {
  %2 = alloca ptr, align 8
  %3 = alloca float, align 4
  %4 = alloca float, align 4
  %5 = alloca float, align 4
  %6 = alloca i64, align 8
  %7 = alloca i32, align 4
  %8 = alloca i32, align 4
  %9 = alloca i32, align 4
  store ptr %0, ptr %2, align 8, !tbaa !3
  %10 = load ptr, ptr %2, align 8
  call void @llvm.lifetime.start.p0(i64 4, ptr %3) #20
  store float 0.000000e+00, ptr %3, align 4, !tbaa !13
  call void @llvm.lifetime.start.p0(i64 4, ptr %4) #20
  store float 0.000000e+00, ptr %4, align 4, !tbaa !13
  call void @llvm.lifetime.start.p0(i64 4, ptr %5) #20
  store float 0.000000e+00, ptr %5, align 4, !tbaa !13
  call void @_ZN2cv12KAZEFeatures30Compute_Multiscale_DerivativesEv(ptr noundef nonnull align 8 dereferenceable(152) %10)
  call void @llvm.lifetime.start.p0(i64 8, ptr %6) #20
  store i64 0, ptr %6, align 8, !tbaa !72
  br label %11

11:                                               ; preds = %88, %1
  %12 = load i64, ptr %6, align 8, !tbaa !72
  %13 = getelementptr inbounds nuw %"class.cv::KAZEFeatures", ptr %10, i32 0, i32 1
  %14 = call noundef i64 @_ZNKSt6vectorIN2cv10TEvolutionESaIS1_EE4sizeEv(ptr noundef nonnull align 8 dereferenceable(24) %13) #20
  %15 = icmp ult i64 %12, %14
  br i1 %15, label %17, label %16

16:                                               ; preds = %11
  store i32 2, ptr %7, align 4
  call void @llvm.lifetime.end.p0(i64 8, ptr %6) #20
  br label %91

17:                                               ; preds = %11
  call void @llvm.lifetime.start.p0(i64 4, ptr %8) #20
  store i32 0, ptr %8, align 4, !tbaa !15
  br label %18

18:                                               ; preds = %84, %17
  %19 = load i32, ptr %8, align 4, !tbaa !15
  %20 = getelementptr inbounds nuw %"class.cv::KAZEFeatures", ptr %10, i32 0, i32 0
  %21 = getelementptr inbounds nuw %"struct.cv::KAZEOptions", ptr %20, i32 0, i32 5
  %22 = load i32, ptr %21, align 4, !tbaa !53
  %23 = icmp slt i32 %19, %22
  br i1 %23, label %25, label %24

24:                                               ; preds = %18
  store i32 5, ptr %7, align 4
  call void @llvm.lifetime.end.p0(i64 4, ptr %8) #20
  br label %87

25:                                               ; preds = %18
  call void @llvm.lifetime.start.p0(i64 4, ptr %9) #20
  store i32 0, ptr %9, align 4, !tbaa !15
  br label %26

26:                                               ; preds = %80, %25
  %27 = load i32, ptr %9, align 4, !tbaa !15
  %28 = getelementptr inbounds nuw %"class.cv::KAZEFeatures", ptr %10, i32 0, i32 0
  %29 = getelementptr inbounds nuw %"struct.cv::KAZEOptions", ptr %28, i32 0, i32 4
  %30 = load i32, ptr %29, align 8, !tbaa !54
  %31 = icmp slt i32 %27, %30
  br i1 %31, label %33, label %32

32:                                               ; preds = %26
  store i32 8, ptr %7, align 4
  call void @llvm.lifetime.end.p0(i64 4, ptr %9) #20
  br label %83

33:                                               ; preds = %26
  %34 = getelementptr inbounds nuw %"class.cv::KAZEFeatures", ptr %10, i32 0, i32 1
  %35 = load i64, ptr %6, align 8, !tbaa !72
  %36 = call noundef nonnull align 8 dereferenceable(788) ptr @_ZNSt6vectorIN2cv10TEvolutionESaIS1_EEixEm(ptr noundef nonnull align 8 dereferenceable(24) %34, i64 noundef %35) #20
  %37 = getelementptr inbounds nuw %"struct.cv::TEvolution", ptr %36, i32 0, i32 2
  %38 = load i32, ptr %8, align 4, !tbaa !15
  %39 = call noundef ptr @_ZN2cv3Mat3ptrIfEEPT_i(ptr noundef nonnull align 8 dereferenceable(96) %37, i32 noundef %38)
  %40 = load i32, ptr %9, align 4, !tbaa !15
  %41 = sext i32 %40 to i64
  %42 = getelementptr inbounds float, ptr %39, i64 %41
  %43 = load float, ptr %42, align 4, !tbaa !13
  store float %43, ptr %3, align 4, !tbaa !13
  %44 = getelementptr inbounds nuw %"class.cv::KAZEFeatures", ptr %10, i32 0, i32 1
  %45 = load i64, ptr %6, align 8, !tbaa !72
  %46 = call noundef nonnull align 8 dereferenceable(788) ptr @_ZNSt6vectorIN2cv10TEvolutionESaIS1_EEixEm(ptr noundef nonnull align 8 dereferenceable(24) %44, i64 noundef %45) #20
  %47 = getelementptr inbounds nuw %"struct.cv::TEvolution", ptr %46, i32 0, i32 3
  %48 = load i32, ptr %8, align 4, !tbaa !15
  %49 = call noundef ptr @_ZN2cv3Mat3ptrIfEEPT_i(ptr noundef nonnull align 8 dereferenceable(96) %47, i32 noundef %48)
  %50 = load i32, ptr %9, align 4, !tbaa !15
  %51 = sext i32 %50 to i64
  %52 = getelementptr inbounds float, ptr %49, i64 %51
  %53 = load float, ptr %52, align 4, !tbaa !13
  store float %53, ptr %4, align 4, !tbaa !13
  %54 = getelementptr inbounds nuw %"class.cv::KAZEFeatures", ptr %10, i32 0, i32 1
  %55 = load i64, ptr %6, align 8, !tbaa !72
  %56 = call noundef nonnull align 8 dereferenceable(788) ptr @_ZNSt6vectorIN2cv10TEvolutionESaIS1_EEixEm(ptr noundef nonnull align 8 dereferenceable(24) %54, i64 noundef %55) #20
  %57 = getelementptr inbounds nuw %"struct.cv::TEvolution", ptr %56, i32 0, i32 4
  %58 = load i32, ptr %8, align 4, !tbaa !15
  %59 = call noundef ptr @_ZN2cv3Mat3ptrIfEEPT_i(ptr noundef nonnull align 8 dereferenceable(96) %57, i32 noundef %58)
  %60 = load i32, ptr %9, align 4, !tbaa !15
  %61 = sext i32 %60 to i64
  %62 = getelementptr inbounds float, ptr %59, i64 %61
  %63 = load float, ptr %62, align 4, !tbaa !13
  store float %63, ptr %5, align 4, !tbaa !13
  %64 = load float, ptr %3, align 4, !tbaa !13
  %65 = load float, ptr %5, align 4, !tbaa !13
  %66 = load float, ptr %4, align 4, !tbaa !13
  %67 = load float, ptr %4, align 4, !tbaa !13
  %68 = fmul float %66, %67
  %69 = fneg float %68
  %70 = call float @llvm.fmuladd.f32(float %64, float %65, float %69)
  %71 = getelementptr inbounds nuw %"class.cv::KAZEFeatures", ptr %10, i32 0, i32 1
  %72 = load i64, ptr %6, align 8, !tbaa !72
  %73 = call noundef nonnull align 8 dereferenceable(788) ptr @_ZNSt6vectorIN2cv10TEvolutionESaIS1_EEixEm(ptr noundef nonnull align 8 dereferenceable(24) %71, i64 noundef %72) #20
  %74 = getelementptr inbounds nuw %"struct.cv::TEvolution", ptr %73, i32 0, i32 7
  %75 = load i32, ptr %8, align 4, !tbaa !15
  %76 = call noundef ptr @_ZN2cv3Mat3ptrIfEEPT_i(ptr noundef nonnull align 8 dereferenceable(96) %74, i32 noundef %75)
  %77 = load i32, ptr %9, align 4, !tbaa !15
  %78 = sext i32 %77 to i64
  %79 = getelementptr inbounds float, ptr %76, i64 %78
  store float %70, ptr %79, align 4, !tbaa !13
  br label %80

80:                                               ; preds = %33
  %81 = load i32, ptr %9, align 4, !tbaa !15
  %82 = add nsw i32 %81, 1
  store i32 %82, ptr %9, align 4, !tbaa !15
  br label %26, !llvm.loop !125

83:                                               ; preds = %32
  br label %84

84:                                               ; preds = %83
  %85 = load i32, ptr %8, align 4, !tbaa !15
  %86 = add nsw i32 %85, 1
  store i32 %86, ptr %8, align 4, !tbaa !15
  br label %18, !llvm.loop !126

87:                                               ; preds = %24
  br label %88

88:                                               ; preds = %87
  %89 = load i64, ptr %6, align 8, !tbaa !72
  %90 = add i64 %89, 1
  store i64 %90, ptr %6, align 8, !tbaa !72
  br label %11, !llvm.loop !127

91:                                               ; preds = %16
  call void @llvm.lifetime.end.p0(i64 4, ptr %5) #20
  call void @llvm.lifetime.end.p0(i64 4, ptr %4) #20
  call void @llvm.lifetime.end.p0(i64 4, ptr %3) #20
  ret void
}