; Function Attrs: mustprogress uwtable
define hidden void @_ZN2cv12KAZEFeatures25Compute_Detector_ResponseEv(ptr noundef nonnull align 8 dereferenceable(152) %0) local_unnamed_addr #0 align 2 personality ptr @__gxx_personality_v0 {
  %2 = alloca %"class.cv::Range", align 4
  %3 = alloca %"class.cv::MultiscaleDerivativesKAZEInvoker", align 8
  call void @llvm.lifetime.start.p0(i64 8, ptr nonnull %2) #23
  %4 = getelementptr inbounds nuw i8, ptr %0, i64 48
  %5 = getelementptr inbounds nuw i8, ptr %0, i64 56
  %6 = load ptr, ptr %5, align 8, !tbaa !41
  %7 = load ptr, ptr %4, align 8, !tbaa !42
  %8 = ptrtoint ptr %6 to i64
  %9 = ptrtoint ptr %7 to i64
  %10 = sub i64 %8, %9
  %11 = sdiv exact i64 %10, 792
  %12 = trunc i64 %11 to i32
  store i32 0, ptr %2, align 4, !tbaa !124
  %13 = getelementptr inbounds nuw i8, ptr %2, i64 4
  store i32 %12, ptr %13, align 4, !tbaa !126
  call void @llvm.lifetime.start.p0(i64 16, ptr nonnull %3) #23
  store ptr getelementptr inbounds nuw inrange(-16, 24) (i8, ptr @_ZTVN2cv32MultiscaleDerivativesKAZEInvokerE, i64 16), ptr %3, align 8, !tbaa !62
  %14 = getelementptr inbounds nuw i8, ptr %3, i64 8
  store ptr %4, ptr %14, align 8, !tbaa !127
  invoke void @_ZN2cv13parallel_for_ERKNS_5RangeERKNS_16ParallelLoopBodyEd(ptr noundef nonnull align 4 dereferenceable(8) %2, ptr noundef nonnull align 8 dereferenceable(8) %3, double noundef -1.000000e+00)
          to label %_ZN2cv12KAZEFeatures30Compute_Multiscale_DerivativesEv.exit unwind label %15

15:                                               ; preds = %1
  %16 = landingpad { ptr, i32 }
          cleanup
  call void @_ZN2cv16ParallelLoopBodyD2Ev(ptr noundef nonnull align 8 dereferenceable(16) %3) #23
  call void @llvm.lifetime.end.p0(i64 16, ptr nonnull %3) #23
  call void @llvm.lifetime.end.p0(i64 8, ptr nonnull %2) #23
  resume { ptr, i32 } %16

_ZN2cv12KAZEFeatures30Compute_Multiscale_DerivativesEv.exit: ; preds = %1
  call void @_ZN2cv16ParallelLoopBodyD2Ev(ptr noundef nonnull align 8 dereferenceable(16) %3) #23
  call void @llvm.lifetime.end.p0(i64 16, ptr nonnull %3) #23
  call void @llvm.lifetime.end.p0(i64 8, ptr nonnull %2) #23
  %17 = load ptr, ptr %5, align 8, !tbaa !41
  %18 = load ptr, ptr %4, align 8, !tbaa !42
  %19 = ptrtoint ptr %17 to i64
  %20 = ptrtoint ptr %18 to i64
  %21 = sub i64 %19, %20
  %22 = sdiv exact i64 %21, 792
  %.not = icmp eq ptr %17, %18
  br i1 %.not, label %._crit_edge, label %.preheader24.lr.ph

.preheader24.lr.ph:                               ; preds = %_ZN2cv12KAZEFeatures30Compute_Multiscale_DerivativesEv.exit
  %23 = getelementptr inbounds nuw i8, ptr %0, i64 20
  %24 = load i32, ptr %23, align 4, !tbaa !46
  %25 = icmp sgt i32 %24, 0
  %26 = getelementptr inbounds nuw i8, ptr %0, i64 16
  %27 = load i32, ptr %26, align 8
  %28 = icmp sgt i32 %27, 0
  %or.cond = select i1 %25, i1 %28, i1 false
  br i1 %or.cond, label %.preheader24.us.us.preheader, label %._crit_edge

.preheader24.us.us.preheader:                     ; preds = %.preheader24.lr.ph
  %umax = call i64 @llvm.umax.i64(i64 %22, i64 1)
  %wide.trip.count39 = zext nneg i32 %24 to i64
  %wide.trip.count = zext nneg i32 %27 to i64
  br label %.preheader24.us.us

.preheader24.us.us:                               ; preds = %.preheader24.us.us.preheader, %._crit_edge27.split.us.us.us
  %.02328.us.us = phi i64 [ %69, %._crit_edge27.split.us.us.us ], [ 0, %.preheader24.us.us.preheader ]
  %29 = getelementptr inbounds nuw %"struct.cv::TEvolution", ptr %18, i64 %.02328.us.us
  %30 = getelementptr inbounds nuw i8, ptr %29, i64 208
  %31 = getelementptr inbounds nuw i8, ptr %29, i64 264
  %32 = getelementptr inbounds nuw i8, ptr %29, i64 304
  %33 = getelementptr inbounds nuw i8, ptr %29, i64 360
  %34 = getelementptr inbounds nuw i8, ptr %29, i64 400
  %35 = getelementptr inbounds nuw i8, ptr %29, i64 456
  %36 = getelementptr inbounds nuw i8, ptr %29, i64 688
  %37 = getelementptr inbounds nuw i8, ptr %29, i64 744
  %38 = load ptr, ptr %30, align 8, !tbaa !131
  %39 = load ptr, ptr %31, align 8, !tbaa !132
  %40 = load i64, ptr %39, align 8, !tbaa !133
  %41 = load ptr, ptr %32, align 8, !tbaa !131
  %42 = load ptr, ptr %33, align 8, !tbaa !132
  %43 = load i64, ptr %42, align 8, !tbaa !133
  %44 = load ptr, ptr %34, align 8, !tbaa !131
  %45 = load ptr, ptr %35, align 8, !tbaa !132
  %46 = load i64, ptr %45, align 8, !tbaa !133
  %47 = load ptr, ptr %36, align 8, !tbaa !131
  %48 = load ptr, ptr %37, align 8, !tbaa !132
  %49 = load i64, ptr %48, align 8, !tbaa !133
  br label %.preheader.us.us.us

.preheader.us.us.us:                              ; preds = %._crit_edge.us.us.us, %.preheader24.us.us
  %indvars.iv36 = phi i64 [ %indvars.iv.next37, %._crit_edge.us.us.us ], [ 0, %.preheader24.us.us ]
  %50 = mul i64 %40, %indvars.iv36
  %51 = getelementptr inbounds nuw i8, ptr %38, i64 %50
  %52 = mul i64 %43, %indvars.iv36
  %53 = getelementptr inbounds nuw i8, ptr %41, i64 %52
  %54 = mul i64 %46, %indvars.iv36
  %55 = getelementptr inbounds nuw i8, ptr %44, i64 %54
  %56 = mul i64 %49, %indvars.iv36
  %57 = getelementptr inbounds nuw i8, ptr %47, i64 %56
  br label %58

58:                                               ; preds = %58, %.preheader.us.us.us
  %indvars.iv = phi i64 [ %indvars.iv.next, %58 ], [ 0, %.preheader.us.us.us ]
  %59 = getelementptr inbounds nuw float, ptr %51, i64 %indvars.iv
  %60 = load float, ptr %59, align 4, !tbaa !8
  %61 = getelementptr inbounds nuw float, ptr %53, i64 %indvars.iv
  %62 = load float, ptr %61, align 4, !tbaa !8
  %63 = getelementptr inbounds nuw float, ptr %55, i64 %indvars.iv
  %64 = load float, ptr %63, align 4, !tbaa !8
  %65 = fneg float %62
  %66 = fmul float %62, %65
  %67 = call float @llvm.fmuladd.f32(float %60, float %64, float %66)
  %68 = getelementptr inbounds nuw float, ptr %57, i64 %indvars.iv
  store float %67, ptr %68, align 4, !tbaa !8
  %indvars.iv.next = add nuw nsw i64 %indvars.iv, 1
  %exitcond.not = icmp eq i64 %indvars.iv.next, %wide.trip.count
  br i1 %exitcond.not, label %._crit_edge.us.us.us, label %58, !llvm.loop !134

._crit_edge.us.us.us:                             ; preds = %58
  %indvars.iv.next37 = add nuw nsw i64 %indvars.iv36, 1
  %exitcond40.not = icmp eq i64 %indvars.iv.next37, %wide.trip.count39
  br i1 %exitcond40.not, label %._crit_edge27.split.us.us.us, label %.preheader.us.us.us, !llvm.loop !135

._crit_edge27.split.us.us.us:                     ; preds = %._crit_edge.us.us.us
  %69 = add nuw i64 %.02328.us.us, 1
  %exitcond41.not = icmp eq i64 %69, %umax
  br i1 %exitcond41.not, label %._crit_edge, label %.preheader24.us.us, !llvm.loop !136

._crit_edge:                                      ; preds = %._crit_edge27.split.us.us.us, %.preheader24.lr.ph, %_ZN2cv12KAZEFeatures30Compute_Multiscale_DerivativesEv.exit
  ret void
}